target datalayout = "e-m:e-p270:32:32-p271:32:32-p272:64:64-i64:64-i128:128-f80:128-n8:16:32:64-S128"
target triple = "x86_64-pc-linux-gnu"

%struct.t_atoms = type { i32, ptr, ptr, ptr, ptr, i32, ptr, ptr, i8, i8, i8, i8, i8 }
%struct.t_atom = type { float, float, float, float, i16, i16, i32, i32, i32, [4 x i8] }

@.str.13 = private unnamed_addr constant [4 x i8] c"ND1\00", align 1
@.str.15 = private unnamed_addr constant [4 x i8] c"NE2\00", align 1

; Function Attrs: inlinehint mustprogress nounwind uwtable
define internal noundef double @_ZN3gmxL7invsqrtEd(double noundef %0) #8 {
  %2 = alloca double, align 8
  store double %0, ptr %2, align 8, !tbaa !81
  %3 = load double, ptr %2, align 8, !tbaa !81
  %4 = call double @sqrt(double noundef %3) #14, !tbaa !27
  %5 = fdiv double 1.000000e+00, %4
  ret double %5
}

; Function Attrs: inlinehint mustprogress nounwind uwtable
define linkonce_odr noundef float @_ZSt4acosf(float noundef %0) #8 comdat {
  %2 = alloca float, align 4
  store float %0, ptr %2, align 4, !tbaa !13
  %3 = load float, ptr %2, align 4, !tbaa !13
  %4 = call float @acosf(float noundef %3) #14, !tbaa !27
  ret float %4
}

; Function Attrs: inlinehint mustprogress uwtable
define internal noundef float @_ZL9cos_anglePKfS0_(ptr noundef %0, ptr noundef %1) #4 {
  %3 = alloca float, align 4
  %4 = alloca ptr, align 8
  %5 = alloca ptr, align 8
  %6 = alloca float, align 4
  %7 = alloca i32, align 4
  %8 = alloca double, align 8
  %9 = alloca double, align 8
  %10 = alloca double, align 8
  %11 = alloca double, align 8
  %12 = alloca double, align 8
  %13 = alloca double, align 8
  %14 = alloca i32, align 4
  store ptr %0, ptr %4, align 8, !tbaa !9
  store ptr %1, ptr %5, align 8, !tbaa !9
  call void @llvm.lifetime.start.p0(i64 4, ptr %6) #14
  call void @llvm.lifetime.start.p0(i64 4, ptr %7) #14
  call void @llvm.lifetime.start.p0(i64 8, ptr %8) #14
  call void @llvm.lifetime.start.p0(i64 8, ptr %9) #14
  call void @llvm.lifetime.start.p0(i64 8, ptr %10) #14
  call void @llvm.lifetime.start.p0(i64 8, ptr %11) #14
  call void @llvm.lifetime.start.p0(i64 8, ptr %12) #14
  call void @llvm.lifetime.start.p0(i64 8, ptr %13) #14
  store double 0.000000e+00, ptr %12, align 8, !tbaa !81
  store double 0.000000e+00, ptr %11, align 8, !tbaa !81
  store double 0.000000e+00, ptr %10, align 8, !tbaa !81
  store i32 0, ptr %7, align 4, !tbaa !27
  br label %15

15:                                               ; preds = %43, %2
  %16 = load i32, ptr %7, align 4, !tbaa !27
  %17 = icmp slt i32 %16, 3
  br i1 %17, label %18, label %46

18:                                               ; preds = %15
  %19 = load ptr, ptr %4, align 8, !tbaa !9
  %20 = load i32, ptr %7, align 4, !tbaa !27
  %21 = sext i32 %20 to i64
  %22 = getelementptr inbounds float, ptr %19, i64 %21
  %23 = load float, ptr %22, align 4, !tbaa !13
  %24 = fpext float %23 to double
  store double %24, ptr %8, align 8, !tbaa !81
  %25 = load ptr, ptr %5, align 8, !tbaa !9
  %26 = load i32, ptr %7, align 4, !tbaa !27
  %27 = sext i32 %26 to i64
  %28 = getelementptr inbounds float, ptr %25, i64 %27
  %29 = load float, ptr %28, align 4, !tbaa !13
  %30 = fpext float %29 to double
  store double %30, ptr %9, align 8, !tbaa !81
  %31 = load double, ptr %8, align 8, !tbaa !81
  %32 = load double, ptr %9, align 8, !tbaa !81
  %33 = load double, ptr %10, align 8, !tbaa !81
  %34 = call double @llvm.fmuladd.f64(double %31, double %32, double %33)
  store double %34, ptr %10, align 8, !tbaa !81
  %35 = load double, ptr %8, align 8, !tbaa !81
  %36 = load double, ptr %8, align 8, !tbaa !81
  %37 = load double, ptr %11, align 8, !tbaa !81
  %38 = call double @llvm.fmuladd.f64(double %35, double %36, double %37)
  store double %38, ptr %11, align 8, !tbaa !81
  %39 = load double, ptr %9, align 8, !tbaa !81
  %40 = load double, ptr %9, align 8, !tbaa !81
  %41 = load double, ptr %12, align 8, !tbaa !81
  %42 = call double @llvm.fmuladd.f64(double %39, double %40, double %41)
  store double %42, ptr %12, align 8, !tbaa !81
  br label %43

43:                                               ; preds = %18
  %44 = load i32, ptr %7, align 4, !tbaa !27
  %45 = add nsw i32 %44, 1
  store i32 %45, ptr %7, align 4, !tbaa !27
  br label %15, !llvm.loop !83

46:                                               ; preds = %15
  %47 = load double, ptr %11, align 8, !tbaa !81
  %48 = load double, ptr %12, align 8, !tbaa !81
  %49 = fmul double %47, %48
  store double %49, ptr %13, align 8, !tbaa !81
  %50 = load double, ptr %13, align 8, !tbaa !81
  %51 = fcmp ogt double %50, 0.000000e+00
  br i1 %51, label %52, label %58

52:                                               ; preds = %46
  %53 = load double, ptr %10, align 8, !tbaa !81
  %54 = load double, ptr %13, align 8, !tbaa !81
  %55 = call noundef double @_ZN3gmxL7invsqrtEd(double noundef %54)
  %56 = fmul double %53, %55
  %57 = fptrunc double %56 to float
  store float %57, ptr %6, align 4, !tbaa !13
  br label %59

58:                                               ; preds = %46
  store float 1.000000e+00, ptr %6, align 4, !tbaa !13
  br label %59

59:                                               ; preds = %58, %52
  %60 = load float, ptr %6, align 4, !tbaa !13
  %61 = fpext float %60 to double
  %62 = fcmp ogt double %61, 1.000000e+00
  br i1 %62, label %63, label %64

63:                                               ; preds = %59
  store float 1.000000e+00, ptr %3, align 4
  store i32 1, ptr %14, align 4
  br label %71

64:                                               ; preds = %59
  %65 = load float, ptr %6, align 4, !tbaa !13
  %66 = fpext float %65 to double
  %67 = fcmp olt double %66, -1.000000e+00
  br i1 %67, label %68, label %69

68:                                               ; preds = %64
  store float -1.000000e+00, ptr %3, align 4
  store i32 1, ptr %14, align 4
  br label %71

69:                                               ; preds = %64
  %70 = load float, ptr %6, align 4, !tbaa !13
  store float %70, ptr %3, align 4
  store i32 1, ptr %14, align 4
  br label %71

71:                                               ; preds = %69, %68, %63
  call void @llvm.lifetime.end.p0(i64 8, ptr %13) #14
  call void @llvm.lifetime.end.p0(i64 8, ptr %12) #14
  call void @llvm.lifetime.end.p0(i64 8, ptr %11) #14
  call void @llvm.lifetime.end.p0(i64 8, ptr %10) #14
  call void @llvm.lifetime.end.p0(i64 8, ptr %9) #14
  call void @llvm.lifetime.end.p0(i64 8, ptr %8) #14
  call void @llvm.lifetime.end.p0(i64 4, ptr %7) #14
  call void @llvm.lifetime.end.p0(i64 4, ptr %6) #14
  %72 = load float, ptr %3, align 4
  ret float %72
}

; Function Attrs: inlinehint mustprogress nounwind uwtable
define internal void @_ZL8rvec_subPKfS0_Pf(ptr noundef %0, ptr noundef %1, ptr noundef %2) #8 {
  %4 = alloca ptr, align 8
  %5 = alloca ptr, align 8
  %6 = alloca ptr, align 8
  %7 = alloca float, align 4
  %8 = alloca float, align 4
  %9 = alloca float, align 4
  store ptr %0, ptr %4, align 8, !tbaa !9
  store ptr %1, ptr %5, align 8, !tbaa !9
  store ptr %2, ptr %6, align 8, !tbaa !9
  call void @llvm.lifetime.start.p0(i64 4, ptr %7) #14
  call void @llvm.lifetime.start.p0(i64 4, ptr %8) #14
  call void @llvm.lifetime.start.p0(i64 4, ptr %9) #14
  %10 = load ptr, ptr %4, align 8, !tbaa !9
  %11 = getelementptr inbounds float, ptr %10, i64 0
  %12 = load float, ptr %11, align 4, !tbaa !13
  %13 = load ptr, ptr %5, align 8, !tbaa !9
  %14 = getelementptr inbounds float, ptr %13, i64 0
  %15 = load float, ptr %14, align 4, !tbaa !13
  %16 = fsub float %12, %15
  store float %16, ptr %7, align 4, !tbaa !13
  %17 = load ptr, ptr %4, align 8, !tbaa !9
  %18 = getelementptr inbounds float, ptr %17, i64 1
  %19 = load float, ptr %18, align 4, !tbaa !13
  %20 = load ptr, ptr %5, align 8, !tbaa !9
  %21 = getelementptr inbounds float, ptr %20, i64 1
  %22 = load float, ptr %21, align 4, !tbaa !13
  %23 = fsub float %19, %22
  store float %23, ptr %8, align 4, !tbaa !13
  %24 = load ptr, ptr %4, align 8, !tbaa !9
  %25 = getelementptr inbounds float, ptr %24, i64 2
  %26 = load float, ptr %25, align 4, !tbaa !13
  %27 = load ptr, ptr %5, align 8, !tbaa !9
  %28 = getelementptr inbounds float, ptr %27, i64 2
  %29 = load float, ptr %28, align 4, !tbaa !13
  %30 = fsub float %26, %29
  store float %30, ptr %9, align 4, !tbaa !13
  %31 = load float, ptr %7, align 4, !tbaa !13
  %32 = load ptr, ptr %6, align 8, !tbaa !9
  %33 = getelementptr inbounds float, ptr %32, i64 0
  store float %31, ptr %33, align 4, !tbaa !13
  %34 = load float, ptr %8, align 4, !tbaa !13
  %35 = load ptr, ptr %6, align 8, !tbaa !9
  %36 = getelementptr inbounds float, ptr %35, i64 1
  store float %34, ptr %36, align 4, !tbaa !13
  %37 = load float, ptr %9, align 4, !tbaa !13
  %38 = load ptr, ptr %6, align 8, !tbaa !9
  %39 = getelementptr inbounds float, ptr %38, i64 2
  store float %37, ptr %39, align 4, !tbaa !13
  call void @llvm.lifetime.end.p0(i64 4, ptr %9) #14
  call void @llvm.lifetime.end.p0(i64 4, ptr %8) #14
  call void @llvm.lifetime.end.p0(i64 4, ptr %7) #14
  ret void
}

; Function Attrs: inlinehint mustprogress nounwind uwtable
define internal noundef float @_ZL9distance2PKfS0_(ptr noundef %0, ptr noundef %1) #8 {
  %3 = alloca ptr, align 8
  %4 = alloca ptr, align 8
  store ptr %0, ptr %3, align 8, !tbaa !9
  store ptr %1, ptr %4, align 8, !tbaa !9
  %5 = load ptr, ptr %4, align 8, !tbaa !9
  %6 = getelementptr inbounds float, ptr %5, i64 0
  %7 = load float, ptr %6, align 4, !tbaa !13
  %8 = load ptr, ptr %3, align 8, !tbaa !9
  %9 = getelementptr inbounds float, ptr %8, i64 0
  %10 = load float, ptr %9, align 4, !tbaa !13
  %11 = fsub float %7, %10
  %12 = call noundef float @_ZN3gmx6squareIfEET_S1_(float noundef %11)
  %13 = load ptr, ptr %4, align 8, !tbaa !9
  %14 = getelementptr inbounds float, ptr %13, i64 1
  %15 = load float, ptr %14, align 4, !tbaa !13
  %16 = load ptr, ptr %3, align 8, !tbaa !9
  %17 = getelementptr inbounds float, ptr %16, i64 1
  %18 = load float, ptr %17, align 4, !tbaa !13
  %19 = fsub float %15, %18
  %20 = call noundef float @_ZN3gmx6squareIfEET_S1_(float noundef %19)
  %21 = fadd float %12, %20
  %22 = load ptr, ptr %4, align 8, !tbaa !9
  %23 = getelementptr inbounds float, ptr %22, i64 2
  %24 = load float, ptr %23, align 4, !tbaa !13
  %25 = load ptr, ptr %3, align 8, !tbaa !9
  %26 = getelementptr inbounds float, ptr %25, i64 2
  %27 = load float, ptr %26, align 4, !tbaa !13
  %28 = fsub float %24, %27
  %29 = call noundef float @_ZN3gmx6squareIfEET_S1_(float noundef %28)
  %30 = fadd float %21, %29
  ret float %30
}

; Function Attrs: mustprogress nounwind uwtable
define linkonce_odr noundef float @_ZN3gmx6squareIfEET_S1_(float noundef %0) #5 comdat {
  %2 = alloca float, align 4
  store float %0, ptr %2, align 4, !tbaa !13
  %3 = load float, ptr %2, align 4, !tbaa !13
  %4 = load float, ptr %2, align 4, !tbaa !13
  %5 = fmul float %3, %4
  ret float %5
}

; Function Attrs: mustprogress uwtable
define internal noundef zeroext i1 @_ZL10chk_hbondsiP7t_atomsPA3_fPKbPbPfff(i32 noundef %0, ptr noundef %1, ptr noundef %2, ptr noundef %3, ptr noundef %4, ptr noundef %5, float noundef %6, float noundef %7) #0 {
  %9 = alloca i32, align 4
  %10 = alloca ptr, align 8
  %11 = alloca ptr, align 8
  %12 = alloca ptr, align 8
  %13 = alloca ptr, align 8
  %14 = alloca ptr, align 8
  %15 = alloca float, align 4
  %16 = alloca float, align 4
  %17 = alloca i8, align 1
  %18 = alloca i32, align 4
  %19 = alloca i32, align 4
  %20 = alloca i32, align 4
  %21 = alloca i32, align 4
  %22 = alloca float, align 4
  %23 = alloca float, align 4
  %24 = alloca float, align 4
  %25 = alloca [3 x float], align 4
  %26 = alloca [3 x float], align 4
  store i32 %0, ptr %9, align 4, !tbaa !27
  store ptr %1, ptr %10, align 8, !tbaa !4
  store ptr %2, ptr %11, align 8, !tbaa !9
  store ptr %3, ptr %12, align 8, !tbaa !45
  store ptr %4, ptr %13, align 8, !tbaa !45
  store ptr %5, ptr %14, align 8, !tbaa !9
  store float %6, ptr %15, align 4, !tbaa !13
  store float %7, ptr %16, align 4, !tbaa !13
  call void @llvm.lifetime.start.p0(i64 1, ptr %17) #14
  call void @llvm.lifetime.start.p0(i64 4, ptr %18) #14
  call void @llvm.lifetime.start.p0(i64 4, ptr %19) #14
  call void @llvm.lifetime.start.p0(i64 4, ptr %20) #14
  call void @llvm.lifetime.start.p0(i64 4, ptr %21) #14
  call void @llvm.lifetime.start.p0(i64 4, ptr %22) #14
  call void @llvm.lifetime.start.p0(i64 4, ptr %23) #14
  call void @llvm.lifetime.start.p0(i64 4, ptr %24) #14
  call void @llvm.lifetime.start.p0(i64 12, ptr %25) #14
  call void @llvm.lifetime.start.p0(i64 12, ptr %26) #14
  %27 = load ptr, ptr %10, align 8, !tbaa !4
  %28 = getelementptr inbounds nuw %struct.t_atoms, ptr %27, i32 0, i32 0
  %29 = load i32, ptr %28, align 8, !tbaa !17
  store i32 %29, ptr %21, align 4, !tbaa !27
  store i8 0, ptr %17, align 1, !tbaa !47
  %30 = load ptr, ptr %10, align 8, !tbaa !4
  %31 = getelementptr inbounds nuw %struct.t_atoms, ptr %30, i32 0, i32 1
  %32 = load ptr, ptr %31, align 8, !tbaa !29
  %33 = load i32, ptr %9, align 4, !tbaa !27
  %34 = sext i32 %33 to i64
  %35 = getelementptr inbounds %struct.t_atom, ptr %32, i64 %34
  %36 = getelementptr inbounds nuw %struct.t_atom, ptr %35, i32 0, i32 7
  %37 = load i32, ptr %36, align 4, !tbaa !30
  store i32 %37, ptr %20, align 4, !tbaa !27
  %38 = load float, ptr %16, align 4, !tbaa !13
  %39 = call noundef float @_ZN3gmx6squareIfEET_S1_(float noundef %38)
  store float %39, ptr %23, align 4, !tbaa !13
  store i32 0, ptr %18, align 4, !tbaa !27
  br label %40

40:                                               ; preds = %137, %8
  %41 = load i32, ptr %18, align 4, !tbaa !27
  %42 = load i32, ptr %21, align 4, !tbaa !27
  %43 = icmp slt i32 %41, %42
  br i1 %43, label %44, label %140

44:                                               ; preds = %40
  %45 = load ptr, ptr %12, align 8, !tbaa !45
  %46 = load i32, ptr %18, align 4, !tbaa !27
  %47 = sext i32 %46 to i64
  %48 = getelementptr inbounds i8, ptr %45, i64 %47
  %49 = load i8, ptr %48, align 1, !tbaa !47, !range !55, !noundef !56
  %50 = trunc i8 %49 to i1
  br i1 %50, label %51, label %136

51:                                               ; preds = %44
  %52 = load i32, ptr %18, align 4, !tbaa !27
  %53 = load i32, ptr %9, align 4, !tbaa !27
  %54 = icmp ne i32 %52, %53
  br i1 %54, label %55, label %136

55:                                               ; preds = %51
  %56 = load ptr, ptr %10, align 8, !tbaa !4
  %57 = getelementptr inbounds nuw %struct.t_atoms, ptr %56, i32 0, i32 1
  %58 = load ptr, ptr %57, align 8, !tbaa !29
  %59 = load i32, ptr %18, align 4, !tbaa !27
  %60 = sext i32 %59 to i64
  %61 = getelementptr inbounds %struct.t_atom, ptr %58, i64 %60
  %62 = getelementptr inbounds nuw %struct.t_atom, ptr %61, i32 0, i32 7
  %63 = load i32, ptr %62, align 4, !tbaa !30
  %64 = load i32, ptr %20, align 4, !tbaa !27
  %65 = icmp ne i32 %63, %64
  br i1 %65, label %88, label %66

66:                                               ; preds = %55
  %67 = load ptr, ptr %10, align 8, !tbaa !4
  %68 = getelementptr inbounds nuw %struct.t_atoms, ptr %67, i32 0, i32 2
  %69 = load ptr, ptr %68, align 8, !tbaa !43
  %70 = load i32, ptr %18, align 4, !tbaa !27
  %71 = sext i32 %70 to i64
  %72 = getelementptr inbounds ptr, ptr %69, i64 %71
  %73 = load ptr, ptr %72, align 8, !tbaa !44
  %74 = load ptr, ptr %73, align 8, !tbaa !37
  %75 = call i32 @strcmp(ptr noundef %74, ptr noundef @.str.13) #15
  %76 = icmp ne i32 %75, 0
  br i1 %76, label %77, label %135

77:                                               ; preds = %66
  %78 = load ptr, ptr %10, align 8, !tbaa !4
  %79 = getelementptr inbounds nuw %struct.t_atoms, ptr %78, i32 0, i32 2
  %80 = load ptr, ptr %79, align 8, !tbaa !43
  %81 = load i32, ptr %18, align 4, !tbaa !27
  %82 = sext i32 %81 to i64
  %83 = getelementptr inbounds ptr, ptr %80, i64 %82
  %84 = load ptr, ptr %83, align 8, !tbaa !44
  %85 = load ptr, ptr %84, align 8, !tbaa !37
  %86 = call i32 @strcmp(ptr noundef %85, ptr noundef @.str.15) #15
  %87 = icmp ne i32 %86, 0
  br i1 %87, label %88, label %135

88:                                               ; preds = %77, %55
  %89 = load i32, ptr %18, align 4, !tbaa !27
  store i32 %89, ptr %19, align 4, !tbaa !27
  %90 = load ptr, ptr %11, align 8, !tbaa !9
  %91 = load i32, ptr %9, align 4, !tbaa !27
  %92 = sext i32 %91 to i64
  %93 = getelementptr inbounds [3 x float], ptr %90, i64 %92
  %94 = getelementptr inbounds [3 x float], ptr %93, i64 0, i64 0
  %95 = load ptr, ptr %11, align 8, !tbaa !9
  %96 = load i32, ptr %18, align 4, !tbaa !27
  %97 = sext i32 %96 to i64
  %98 = getelementptr inbounds [3 x float], ptr %95, i64 %97
  %99 = getelementptr inbounds [3 x float], ptr %98, i64 0, i64 0
  %100 = call noundef float @_ZL9distance2PKfS0_(ptr noundef %94, ptr noundef %99)
  store float %100, ptr %22, align 4, !tbaa !13
  %101 = load ptr, ptr %11, align 8, !tbaa !9
  %102 = load i32, ptr %9, align 4, !tbaa !27
  %103 = sext i32 %102 to i64
  %104 = getelementptr inbounds [3 x float], ptr %101, i64 %103
  %105 = getelementptr inbounds [3 x float], ptr %104, i64 0, i64 0
  %106 = load ptr, ptr %14, align 8, !tbaa !9
  %107 = getelementptr inbounds [3 x float], ptr %25, i64 0, i64 0
  call void @_ZL8rvec_subPKfS0_Pf(ptr noundef %105, ptr noundef %106, ptr noundef %107)
  %108 = load ptr, ptr %11, align 8, !tbaa !9
  %109 = load i32, ptr %19, align 4, !tbaa !27
  %110 = sext i32 %109 to i64
  %111 = getelementptr inbounds [3 x float], ptr %108, i64 %110
  %112 = getelementptr inbounds [3 x float], ptr %111, i64 0, i64 0
  %113 = load ptr, ptr %14, align 8, !tbaa !9
  %114 = getelementptr inbounds [3 x float], ptr %26, i64 0, i64 0
  call void @_ZL8rvec_subPKfS0_Pf(ptr noundef %112, ptr noundef %113, ptr noundef %114)
  %115 = getelementptr inbounds [3 x float], ptr %25, i64 0, i64 0
  %116 = getelementptr inbounds [3 x float], ptr %26, i64 0, i64 0
  %117 = call noundef float @_ZL9cos_anglePKfS0_(ptr noundef %115, ptr noundef %116)
  %118 = call noundef float @_ZSt4acosf(float noundef %117)
  %119 = fpext float %118 to double
  %120 = fmul double 0x404CA5DC1A63C1F8, %119
  %121 = fptrunc double %120 to float
  store float %121, ptr %24, align 4, !tbaa !13
  %122 = load float, ptr %22, align 4, !tbaa !13
  %123 = load float, ptr %23, align 4, !tbaa !13
  %124 = fcmp olt float %122, %123
  br i1 %124, label %125, label %134

125:                                              ; preds = %88
  %126 = load float, ptr %24, align 4, !tbaa !13
  %127 = load float, ptr %15, align 4, !tbaa !13
  %128 = fcmp ogt float %126, %127
  br i1 %128, label %129, label %134

129:                                              ; preds = %125
  %130 = load ptr, ptr %13, align 8, !tbaa !45
  %131 = load i32, ptr %9, align 4, !tbaa !27
  %132 = sext i32 %131 to i64
  %133 = getelementptr inbounds i8, ptr %130, i64 %132
  store i8 1, ptr %133, align 1, !tbaa !47
  store i8 1, ptr %17, align 1, !tbaa !47
  br label %134

134:                                              ; preds = %129, %125, %88
  br label %135

135:                                              ; preds = %134, %77, %66
  br label %136

136:                                              ; preds = %135, %51, %44
  br label %137

137:                                              ; preds = %136
  %138 = load i32, ptr %18, align 4, !tbaa !27
  %139 = add nsw i32 %138, 1
  store i32 %139, ptr %18, align 4, !tbaa !27
  br label %40, !llvm.loop !73

140:                                              ; preds = %40
  %141 = load i8, ptr %17, align 1, !tbaa !47, !range !55, !noundef !56
  %142 = trunc i8 %141 to i1
  call void @llvm.lifetime.end.p0(i64 12, ptr %26) #14
  call void @llvm.lifetime.end.p0(i64 12, ptr %25) #14
  call void @llvm.lifetime.end.p0(i64 4, ptr %24) #14
  call void @llvm.lifetime.end.p0(i64 4, ptr %23) #14
  call void @llvm.lifetime.end.p0(i64 4, ptr %22) #14
  call void @llvm.lifetime.end.p0(i64 4, ptr %21) #14
  call void @llvm.lifetime.end.p0(i64 4, ptr %20) #14
  call void @llvm.lifetime.end.p0(i64 4, ptr %19) #14
  call void @llvm.lifetime.end.p0(i64 4, ptr %18) #14
  call void @llvm.lifetime.end.p0(i64 1, ptr %17) #14
  ret i1 %142
}