; Function Attrs: mustprogress nofree nounwind memory(readwrite, inaccessiblemem: write) uwtable
define internal fastcc noundef zeroext i1 @_ZL10chk_hbondsiP7t_atomsPA3_fPKbPbPfff(i32 noundef %0, ptr noundef readonly captures(none) %1, ptr noundef readonly captures(none) %2, ptr noundef readonly captures(none) %3, ptr noundef writeonly captures(none) %4, ptr noundef nonnull readonly captures(none) %5, float noundef %6, float noundef %7) unnamed_addr #5 {
  %9 = alloca [3 x float], align 4
  %10 = alloca [3 x float], align 4
  call void @llvm.lifetime.start.p0(i64 12, ptr nonnull %9) #16
  call void @llvm.lifetime.start.p0(i64 12, ptr nonnull %10) #16
  %11 = load i32, ptr %1, align 8, !tbaa !4
  %12 = getelementptr inbounds nuw i8, ptr %1, i64 8
  %13 = load ptr, ptr %12, align 8, !tbaa !18
  %14 = sext i32 %0 to i64
  %15 = getelementptr inbounds %struct.t_atom, ptr %13, i64 %14, i32 7
  %16 = load i32, ptr %15, align 4, !tbaa !19
  %17 = fmul float %7, %7
  %18 = icmp sgt i32 %11, 0
  br i1 %18, label %.lr.ph, label %._crit_edge

.lr.ph:                                           ; preds = %8
  %19 = getelementptr inbounds nuw i8, ptr %1, i64 16
  %20 = getelementptr inbounds [3 x float], ptr %2, i64 %14
  %21 = getelementptr inbounds nuw i8, ptr %20, i64 4
  %22 = getelementptr inbounds nuw i8, ptr %20, i64 8
  %23 = getelementptr inbounds nuw i8, ptr %5, i64 4
  %24 = getelementptr inbounds nuw i8, ptr %5, i64 8
  %25 = getelementptr inbounds nuw i8, ptr %9, i64 4
  %26 = getelementptr inbounds nuw i8, ptr %9, i64 8
  %27 = getelementptr inbounds nuw i8, ptr %10, i64 4
  %28 = getelementptr inbounds nuw i8, ptr %10, i64 8
  %29 = getelementptr inbounds i8, ptr %4, i64 %14
  %30 = zext i32 %0 to i64
  %wide.trip.count = zext nneg i32 %11 to i64
  br label %31

31:                                               ; preds = %.lr.ph, %101
  %indvars.iv = phi i64 [ 0, %.lr.ph ], [ %indvars.iv.next, %101 ]
  %.043 = phi i1 [ false, %.lr.ph ], [ %.1, %101 ]
  %32 = getelementptr inbounds nuw i8, ptr %3, i64 %indvars.iv
  %33 = load i8, ptr %32, align 1, !tbaa !36, !range !44, !noundef !45
  %34 = trunc nuw i8 %33 to i1
  %.not = icmp ne i64 %indvars.iv, %30
  %or.cond.not = and i1 %.not, %34
  br i1 %or.cond.not, label %35, label %101

35:                                               ; preds = %31
  %36 = getelementptr inbounds nuw %struct.t_atom, ptr %13, i64 %indvars.iv, i32 7
  %37 = load i32, ptr %36, align 4, !tbaa !19
  %.not36 = icmp eq i32 %37, %16
  br i1 %.not36, label %38, label %46

38:                                               ; preds = %35
  %39 = load ptr, ptr %19, align 8, !tbaa !33
  %40 = getelementptr inbounds nuw ptr, ptr %39, i64 %indvars.iv
  %41 = load ptr, ptr %40, align 8, !tbaa !34
  %42 = load ptr, ptr %41, align 8, !tbaa !27
  %43 = tail call i32 @strcmp(ptr noundef nonnull dereferenceable(1) %42, ptr noundef nonnull dereferenceable(4) @.str.13) #18
  %.not37 = icmp eq i32 %43, 0
  br i1 %.not37, label %101, label %44

44:                                               ; preds = %38
  %45 = tail call i32 @strcmp(ptr noundef nonnull dereferenceable(1) %42, ptr noundef nonnull dereferenceable(4) @.str.15) #18
  %.not38 = icmp eq i32 %45, 0
  br i1 %.not38, label %101, label %46

46:                                               ; preds = %44, %35
  %47 = getelementptr inbounds nuw [3 x float], ptr %2, i64 %indvars.iv
  %48 = load float, ptr %47, align 4, !tbaa !46
  %49 = load float, ptr %20, align 4, !tbaa !46
  %50 = fsub float %48, %49
  %51 = getelementptr inbounds nuw i8, ptr %47, i64 4
  %52 = load float, ptr %51, align 4, !tbaa !46
  %53 = load float, ptr %21, align 4, !tbaa !46
  %54 = fsub float %52, %53
  %55 = fmul float %54, %54
  %56 = getelementptr inbounds nuw i8, ptr %47, i64 8
  %57 = load float, ptr %56, align 4, !tbaa !46
  %58 = load float, ptr %22, align 4, !tbaa !46
  %59 = fsub float %57, %58
  %60 = fmul float %59, %59
  %61 = load float, ptr %5, align 4, !tbaa !46
  %62 = fsub float %49, %61
  %63 = load float, ptr %23, align 4, !tbaa !46
  %64 = fsub float %53, %63
  %65 = load float, ptr %24, align 4, !tbaa !46
  %66 = fsub float %58, %65
  store float %62, ptr %9, align 4, !tbaa !46
  store float %64, ptr %25, align 4, !tbaa !46
  store float %66, ptr %26, align 4, !tbaa !46
  %67 = fsub float %48, %61
  %68 = fsub float %52, %63
  %69 = fsub float %57, %65
  store float %67, ptr %10, align 4, !tbaa !46
  store float %68, ptr %27, align 4, !tbaa !46
  store float %69, ptr %28, align 4, !tbaa !46
  br label %70

70:                                               ; preds = %70, %46
  %indvars.iv.i = phi i64 [ 0, %46 ], [ %indvars.iv.next.i, %70 ]
  %.02333.i = phi double [ 0.000000e+00, %46 ], [ %79, %70 ]
  %.02432.i = phi double [ 0.000000e+00, %46 ], [ %78, %70 ]
  %.02531.i = phi double [ 0.000000e+00, %46 ], [ %77, %70 ]
  %71 = getelementptr inbounds nuw float, ptr %9, i64 %indvars.iv.i
  %72 = load float, ptr %71, align 4, !tbaa !46
  %73 = fpext float %72 to double
  %74 = getelementptr inbounds nuw float, ptr %10, i64 %indvars.iv.i
  %75 = load float, ptr %74, align 4, !tbaa !46
  %76 = fpext float %75 to double
  %77 = tail call double @llvm.fmuladd.f64(double %73, double %76, double %.02531.i)
  %78 = tail call double @llvm.fmuladd.f64(double %73, double %73, double %.02432.i)
  %79 = tail call double @llvm.fmuladd.f64(double %76, double %76, double %.02333.i)
  %indvars.iv.next.i = add nuw nsw i64 %indvars.iv.i, 1
  %exitcond.not.i = icmp eq i64 %indvars.iv.next.i, 3
  br i1 %exitcond.not.i, label %80, label %70, !llvm.loop !55

80:                                               ; preds = %70
  %81 = fmul float %50, %50
  %82 = fadd float %81, %55
  %83 = fadd float %82, %60
  %84 = fmul double %78, %79
  %85 = fcmp ogt double %84, 0.000000e+00
  br i1 %85, label %86, label %_ZL9cos_anglePKfS0_.exit

86:                                               ; preds = %80
  %87 = tail call double @sqrt(double noundef %84) #16, !tbaa !43
  %88 = fdiv double 1.000000e+00, %87
  %89 = fmul double %77, %88
  %90 = fptrunc double %89 to float
  br label %_ZL9cos_anglePKfS0_.exit

_ZL9cos_anglePKfS0_.exit:                         ; preds = %80, %86
  %.026.i = phi float [ %90, %86 ], [ 1.000000e+00, %80 ]
  %91 = fcmp ogt float %.026.i, 1.000000e+00
  %92 = fcmp olt float %.026.i, -1.000000e+00
  %..026.i = select i1 %92, float -1.000000e+00, float %.026.i
  %.0.i = select i1 %91, float 1.000000e+00, float %..026.i
  %93 = tail call noundef float @acosf(float noundef %.0.i) #16, !tbaa !43
  %94 = fcmp olt float %83, %17
  br i1 %94, label %95, label %101

95:                                               ; preds = %_ZL9cos_anglePKfS0_.exit
  %96 = fpext float %93 to double
  %97 = fmul double %96, 0x404CA5DC1A63C1F8
  %98 = fptrunc double %97 to float
  %99 = fcmp olt float %6, %98
  br i1 %99, label %100, label %101

100:                                              ; preds = %95
  store i8 1, ptr %29, align 1, !tbaa !36
  br label %101

101:                                              ; preds = %31, %_ZL9cos_anglePKfS0_.exit, %95, %100, %44, %38
  %.1 = phi i1 [ true, %100 ], [ %.043, %95 ], [ %.043, %_ZL9cos_anglePKfS0_.exit ], [ %.043, %44 ], [ %.043, %38 ], [ %.043, %31 ]
  %indvars.iv.next = add nuw nsw i64 %indvars.iv, 1
  %exitcond.not = icmp eq i64 %indvars.iv.next, %wide.trip.count
  br i1 %exitcond.not, label %._crit_edge, label %31, !llvm.loop !56

._crit_edge:                                      ; preds = %101, %8
  %.0.lcssa = phi i1 [ false, %8 ], [ %.1, %101 ]
  call void @llvm.lifetime.end.p0(i64 12, ptr nonnull %10) #16
  call void @llvm.lifetime.end.p0(i64 12, ptr nonnull %9) #16
  ret i1 %.0.lcssa
}